Certificate:
    Data:
        Version: 3 (0x2)
        Serial Number:
            18:60:1c:17:17:61:24:0f:9c:f2:03:93:16:05:64:8d
        Signature Algorithm: sha256WithRSAEncryption
        Issuer: CN=cert.vpn.jenkins.io
        Validity
            Not Before: Feb 14 14:02:03 2019 GMT
            Not After : Jan 29 14:02:03 2022 GMT
        Subject: CN=olblak
        Subject Public Key Info:
            Public Key Algorithm: rsaEncryption
                RSA Public-Key: (4096 bit)
                Modulus:
                    00:ab:83:25:78:fd:24:7e:63:67:7a:11:7d:89:be:
                    08:8a:c6:79:25:1d:40:df:ec:e2:45:27:0a:64:15:
                    03:e9:45:61:91:26:da:74:a3:ac:5f:43:f6:42:d7:
                    fa:df:7b:63:7f:67:70:e0:95:16:29:2a:b7:c5:05:
                    be:c9:18:14:0b:89:f0:c7:c1:d2:6e:d4:df:b6:31:
                    cb:d3:da:29:04:82:8d:43:8e:59:5b:62:a3:3d:82:
                    ef:68:8a:0e:a3:1a:35:6a:dc:43:ac:8c:1d:de:91:
                    20:9c:ae:ff:7f:49:22:16:d9:07:67:99:37:16:f5:
                    a0:df:83:7a:00:68:cc:64:0f:80:84:04:3a:10:a9:
                    63:f3:86:b0:14:e8:d9:8f:4f:7d:3f:20:03:7a:32:
                    e1:b9:c0:19:88:8d:c6:58:0f:e7:be:39:57:31:9c:
                    1f:7e:6c:c4:57:a1:9f:3f:0a:92:da:17:56:d6:d4:
                    fd:a0:29:ea:4b:88:33:cf:c7:08:c4:56:fc:71:52:
                    6c:10:e9:fd:b0:d0:1f:c1:a9:a5:2d:1d:c7:4d:32:
                    1b:4d:aa:0f:94:27:a7:38:36:0e:c4:dc:f2:65:ec:
                    f2:de:2c:71:89:1c:d2:e0:b1:30:53:90:7c:ec:f3:
                    a7:74:b2:be:d1:a2:24:c7:45:d3:62:57:ad:ac:b8:
                    85:3a:7e:37:77:91:cc:0f:c4:09:70:22:c2:5a:a6:
                    0d:24:1f:e6:3e:13:23:c3:d5:88:95:b5:f1:dd:7d:
                    33:84:cc:cb:21:1d:af:d8:a5:c1:1b:9e:f5:66:30:
                    e7:2f:f9:7e:2f:ca:ea:f5:49:7d:ef:5e:a7:1f:aa:
                    37:c4:79:cc:99:b4:a5:84:ae:d1:16:7a:dd:d2:39:
                    96:d9:5c:1b:95:e1:7c:a3:97:fc:42:e4:90:b3:1b:
                    62:c0:c0:de:66:a1:d8:30:5a:3d:db:c8:fd:3b:8b:
                    90:d6:6e:5a:46:39:fe:6d:cc:7e:30:dd:09:e9:1c:
                    5f:91:67:a8:44:bd:71:13:a5:64:22:cf:9a:1d:64:
                    7f:b5:b9:8a:27:c2:06:1e:f1:1a:75:28:09:a0:b7:
                    18:13:13:f6:70:84:d0:bf:37:e5:9e:03:3e:1f:90:
                    d0:44:ff:c7:27:73:70:a7:ff:81:74:b9:7f:a9:49:
                    90:2b:ac:e8:6f:93:40:27:15:f2:86:2f:d4:7c:d0:
                    c2:38:4c:f4:24:70:3e:0b:c3:fa:77:84:2a:b6:69:
                    1d:2f:dc:c7:d5:0a:89:2a:68:f0:86:69:78:51:da:
                    08:a8:e5:17:e6:0f:a5:0a:c1:eb:de:43:de:1a:d3:
                    7c:6f:54:a4:fb:a7:b7:09:0c:a0:88:61:fb:48:9b:
                    db:31:89
                Exponent: 65537 (0x10001)
        X509v3 extensions:
            X509v3 Basic Constraints: 
                CA:FALSE
            X509v3 Subject Key Identifier: 
                17:CE:70:88:16:38:18:EC:EA:A1:21:82:EC:62:19:59:D1:27:68:92
            X509v3 Authority Key Identifier: 
                keyid:37:3A:6A:38:F9:ED:57:DD:E6:49:89:22:8E:62:EE:1A:77:74:D2:21
                DirName:/CN=cert.vpn.jenkins.io
                serial:2C:76:6D:8B:24:C7:DA:61:FF:37:0F:C4:DC:B8:AF:59:46:1A:E6:1E

            X509v3 Extended Key Usage: 
                TLS Web Client Authentication
            X509v3 Key Usage: 
                Digital Signature
    Signature Algorithm: sha256WithRSAEncryption
         7b:64:e1:13:c5:7d:11:1f:d0:6f:04:bd:f4:90:16:06:11:7b:
         a2:3a:28:a8:03:1b:f4:c8:8f:65:35:d5:3e:a6:2c:f2:36:27:
         99:bb:31:38:eb:29:35:75:72:3c:e2:91:ff:28:8f:bd:3d:d8:
         af:0a:07:3e:22:7d:13:9c:35:7d:34:cc:cd:46:3e:e6:b0:60:
         ed:bf:d4:f3:1d:fb:29:12:06:55:e4:56:be:9e:fc:e4:00:6b:
         fc:80:d0:70:19:bf:4a:05:48:87:aa:de:0b:d6:62:49:e6:5a:
         73:88:a9:7e:15:54:8a:7e:8b:31:d1:7e:a4:17:5b:87:69:bd:
         40:4c:66:c9:98:44:02:31:0b:8b:71:01:3c:e5:7f:ba:de:f1:
         aa:8a:09:16:91:68:fe:a0:47:85:de:4d:57:fc:d8:03:4c:e9:
         14:51:45:d0:2e:ed:45:81:74:96:af:a6:28:b8:58:73:08:0c:
         a7:ca:5d:8c:91:b5:74:dc:ce:8d:76:c8:ad:3c:f9:cc:5d:78:
         c1:dd:ec:cd:7e:68:11:3b:24:e5:c7:b5:c3:2c:71:80:b1:f3:
         cd:88:d5:53:b6:e8:3f:e7:5c:bf:0a:b0:cb:d0:21:3a:32:62:
         01:d4:7c:98:98:5e:d0:c8:96:f0:67:ea:98:79:70:10:a0:39:
         fa:67:78:c9:2d:ce:fa:2d:32:d6:e1:8c:9c:5a:6b:56:b4:ca:
         2d:5c:7d:15:06:85:63:f8:ed:66:0f:26:9a:25:7e:2f:ec:d7:
         f7:70:04:d1:08:0c:c8:b7:7c:91:ab:ee:d9:f5:8d:35:5d:91:
         ef:a9:a3:60:d6:40:26:51:9e:fb:ca:0b:41:4b:b9:68:8a:67:
         c8:a4:38:f3:8d:ae:2f:b1:11:8a:2f:21:e8:35:99:6e:39:24:
         92:78:74:24:59:64:67:81:1b:60:b6:51:01:0d:5b:d8:b2:17:
         79:0e:de:7b:dc:1c:19:c7:33:17:dc:d8:0a:ee:76:60:38:6d:
         c1:f1:2b:c0:63:be:ad:43:94:72:3f:d7:09:88:83:b6:03:48:
         e8:c1:55:e1:6f:cc:08:02:dc:ea:e3:12:7a:ad:c9:ea:f9:86:
         a9:6c:16:27:36:ba:1f:82:28:bb:be:69:02:18:1d:63:e8:6d:
         b4:3e:ba:06:90:37:f0:37:9e:72:01:ce:bb:32:06:a7:d2:56:
         65:11:4e:47:89:64:56:9c:f3:1b:97:b3:8b:5c:2f:0a:73:03:
         d4:68:ae:52:06:76:9e:d5:e9:b5:9d:31:79:c6:f6:c2:59:6f:
         f3:2e:e6:41:d2:0c:0c:e6:9c:c9:88:2c:36:55:c8:b6:74:65:
         77:65:ee:1c:95:c4:6d:70
-----BEGIN CERTIFICATE-----
MIIFZDCCA0ygAwIBAgIQGGAcFxdhJA+c8gOTFgVkjTANBgkqhkiG9w0BAQsFADAe
MRwwGgYDVQQDDBNjZXJ0LnZwbi5qZW5raW5zLmlvMB4XDTE5MDIxNDE0MDIwM1oX
DTIyMDEyOTE0MDIwM1owETEPMA0GA1UEAwwGb2xibGFrMIICIjANBgkqhkiG9w0B
AQEFAAOCAg8AMIICCgKCAgEAq4MleP0kfmNnehF9ib4IisZ5JR1A3+ziRScKZBUD
6UVhkSbadKOsX0P2Qtf633tjf2dw4JUWKSq3xQW+yRgUC4nwx8HSbtTftjHL09op
BIKNQ45ZW2KjPYLvaIoOoxo1atxDrIwd3pEgnK7/f0kiFtkHZ5k3FvWg34N6AGjM
ZA+AhAQ6EKlj84awFOjZj099PyADejLhucAZiI3GWA/nvjlXMZwffmzEV6GfPwqS
2hdW1tT9oCnqS4gzz8cIxFb8cVJsEOn9sNAfwamlLR3HTTIbTaoPlCenODYOxNzy
Zezy3ixxiRzS4LEwU5B87POndLK+0aIkx0XTYletrLiFOn43d5HMD8QJcCLCWqYN
JB/mPhMjw9WIlbXx3X0zhMzLIR2v2KXBG571ZjDnL/l+L8rq9Ul9716nH6o3xHnM
mbSlhK7RFnrd0jmW2VwbleF8o5f8QuSQsxtiwMDeZqHYMFo928j9O4uQ1m5aRjn+
bcx+MN0J6RxfkWeoRL1xE6VkIs+aHWR/tbmKJ8IGHvEadSgJoLcYExP2cITQvzfl
ngM+H5DQRP/HJ3Nwp/+BdLl/qUmQK6zob5NAJxXyhi/UfNDCOEz0JHA+C8P6d4Qq
tmkdL9zH1QqJKmjwhml4UdoIqOUX5g+lCsHr3kPeGtN8b1Sk+6e3CQygiGH7SJvb
MYkCAwEAAaOBqjCBpzAJBgNVHRMEAjAAMB0GA1UdDgQWBBQXznCIFjgY7OqhIYLs
YhlZ0SdokjBZBgNVHSMEUjBQgBQ3Omo4+e1X3eZJiSKOYu4ad3TSIaEipCAwHjEc
MBoGA1UEAwwTY2VydC52cG4uamVua2lucy5pb4IULHZtiyTH2mH/Nw/E3LivWUYa
5h4wEwYDVR0lBAwwCgYIKwYBBQUHAwIwCwYDVR0PBAQDAgeAMA0GCSqGSIb3DQEB
CwUAA4ICAQB7ZOETxX0RH9BvBL30kBYGEXuiOiioAxv0yI9lNdU+pizyNieZuzE4
6yk1dXI84pH/KI+9PdivCgc+In0TnDV9NMzNRj7msGDtv9TzHfspEgZV5Fa+nvzk
AGv8gNBwGb9KBUiHqt4L1mJJ5lpziKl+FVSKfosx0X6kF1uHab1ATGbJmEQCMQuL
cQE85X+63vGqigkWkWj+oEeF3k1X/NgDTOkUUUXQLu1FgXSWr6YouFhzCAynyl2M
kbV03M6NdsitPPnMXXjB3ezNfmgROyTlx7XDLHGAsfPNiNVTtug/51y/CrDL0CE6
MmIB1HyYmF7QyJbwZ+qYeXAQoDn6Z3jJLc76LTLW4YycWmtWtMotXH0VBoVj+O1m
DyaaJX4v7Nf3cATRCAzIt3yRq+7Z9Y01XZHvqaNg1kAmUZ77ygtBS7loimfIpDjz
ja4vsRGKLyHoNZluOSSSeHQkWWRngRtgtlEBDVvYshd5Dt573BwZxzMX3NgK7nZg
OG3B8SvAY76tQ5RyP9cJiIO2A0jowVXhb8wIAtzq4xJ6rcnq+YapbBYnNrofgii7
vmkCGB1j6G20ProGkDfwN55yAc67Mgan0lZlEU5HiWRWnPMbl7OLXC8KcwPUaK5S
Bnae1em1nTF5xvbCWW/zLuZB0gwM5pzJiCw2Vci2dGV3Ze4clcRtcA==
-----END CERTIFICATE-----
